; Function Attrs: mustprogress uwtable
define hidden noundef zeroext i1 @_ZN6spacer15pob_concretizer8push_outER10ref_vectorI4expr11ast_managerERK7obj_refIS2_S3_E(ptr noundef nonnull align 8 dereferenceable(184) %this, ptr noundef nonnull align 8 dereferenceable(16) %out, ptr nocapture noundef nonnull readonly align 8 dereferenceable(16) %e) local_unnamed_addr #3 align 2 {
entry:
  %m_var_marks = getelementptr inbounds i8, ptr %this, i64 40
  %0 = load ptr, ptr %e, align 8
  %m_mark2.i.i = getelementptr inbounds i8, ptr %0, i64 4
  %bf.load.i.i = load i32, ptr %m_mark2.i.i, align 4
  %1 = and i32 %bf.load.i.i, 131072
  %tobool.i.i.not = icmp eq i32 %1, 0
  br i1 %tobool.i.i.not, label %if.end.i, label %return

if.end.i:                                         ; preds = %entry
  %bf.set.i.i = or disjoint i32 %bf.load.i.i, 131072
  store i32 %bf.set.i.i, ptr %m_mark2.i.i, align 4
  %m_pos.i.i = getelementptr inbounds i8, ptr %this, i64 48
  %2 = load i32, ptr %m_pos.i.i, align 8
  %m_capacity.i.i = getelementptr inbounds i8, ptr %this, i64 52
  %3 = load i32, ptr %m_capacity.i.i, align 4
  %cmp.not.i.i = icmp ult i32 %2, %3
  br i1 %cmp.not.i.i, label %entry.if.end_crit_edge.i.i, label %if.then.i.i

entry.if.end_crit_edge.i.i:                       ; preds = %if.end.i
  %.pre.i.i = load ptr, ptr %m_var_marks, align 8
  br label %_ZN13ast_fast_markILj2EE4markEP3ast.exit

if.then.i.i:                                      ; preds = %if.end.i
  %shl.i.i.i = shl i32 %3, 1
  %conv.i.i.i = zext i32 %shl.i.i.i to i64
  %mul.i.i.i = shl nuw nsw i64 %conv.i.i.i, 3
  %call.i.i.i = tail call noalias noundef ptr @_ZN6memory8allocateEm(i64 noundef %mul.i.i.i)
  %4 = load i32, ptr %m_pos.i.i, align 8
  %cmp6.not.i.i.i = icmp eq i32 %4, 0
  %.pre.i.i.i = load ptr, ptr %m_var_marks, align 8
  br i1 %cmp6.not.i.i.i, label %for.end.i.i.i, label %for.body.lr.ph.i.i.i

for.body.lr.ph.i.i.i:                             ; preds = %if.then.i.i
  %wide.trip.count.i.i.i = zext i32 %4 to i64
  br label %for.body.i.i.i

for.body.i.i.i:                                   ; preds = %for.body.i.i.i, %for.body.lr.ph.i.i.i
  %indvars.iv.i.i.i = phi i64 [ 0, %for.body.lr.ph.i.i.i ], [ %indvars.iv.next.i.i.i, %for.body.i.i.i ]
  %arrayidx.i.i.i = getelementptr inbounds ptr, ptr %call.i.i.i, i64 %indvars.iv.i.i.i
  %arrayidx3.i.i.i = getelementptr inbounds ptr, ptr %.pre.i.i.i, i64 %indvars.iv.i.i.i
  %5 = load ptr, ptr %arrayidx3.i.i.i, align 8
  store ptr %5, ptr %arrayidx.i.i.i, align 8
  %indvars.iv.next.i.i.i = add nuw nsw i64 %indvars.iv.i.i.i, 1
  %exitcond.not.i.i.i = icmp eq i64 %indvars.iv.next.i.i.i, %wide.trip.count.i.i.i
  br i1 %exitcond.not.i.i.i, label %for.end.i.i.i, label %for.body.i.i.i, !llvm.loop !4

for.end.i.i.i:                                    ; preds = %for.body.i.i.i, %if.then.i.i
  %m_initial_buffer.i.i.i.i = getelementptr inbounds i8, ptr %this, i64 56
  %cmp.not.i.i.i.i = icmp eq ptr %.pre.i.i.i, %m_initial_buffer.i.i.i.i
  %cmp.i.i.i.i.i = icmp eq ptr %.pre.i.i.i, null
  %or.cond.i.i.i.i = or i1 %cmp.not.i.i.i.i, %cmp.i.i.i.i.i
  br i1 %or.cond.i.i.i.i, label %_ZN6bufferIP3astLb0ELj16EE6expandEv.exit.i.i, label %if.end.i.i.i.i.i

if.end.i.i.i.i.i:                                 ; preds = %for.end.i.i.i
  tail call void @_ZN6memory10deallocateEPv(ptr noundef nonnull %.pre.i.i.i)
  %.pre1.pre.i.i = load i32, ptr %m_pos.i.i, align 8
  br label %_ZN6bufferIP3astLb0ELj16EE6expandEv.exit.i.i

_ZN6bufferIP3astLb0ELj16EE6expandEv.exit.i.i:     ; preds = %if.end.i.i.i.i.i, %for.end.i.i.i
  %.pre1.i.i = phi i32 [ %4, %for.end.i.i.i ], [ %.pre1.pre.i.i, %if.end.i.i.i.i.i ]
  store ptr %call.i.i.i, ptr %m_var_marks, align 8
  store i32 %shl.i.i.i, ptr %m_capacity.i.i, align 4
  br label %_ZN13ast_fast_markILj2EE4markEP3ast.exit

_ZN13ast_fast_markILj2EE4markEP3ast.exit:         ; preds = %entry.if.end_crit_edge.i.i, %_ZN6bufferIP3astLb0ELj16EE6expandEv.exit.i.i
  %6 = phi i32 [ %2, %entry.if.end_crit_edge.i.i ], [ %.pre1.i.i, %_ZN6bufferIP3astLb0ELj16EE6expandEv.exit.i.i ]
  %7 = phi ptr [ %.pre.i.i, %entry.if.end_crit_edge.i.i ], [ %call.i.i.i, %_ZN6bufferIP3astLb0ELj16EE6expandEv.exit.i.i ]
  %idx.ext.i.i = zext i32 %6 to i64
  %add.ptr.i.i = getelementptr inbounds ptr, ptr %7, i64 %idx.ext.i.i
  store ptr %0, ptr %add.ptr.i.i, align 8
  %8 = load i32, ptr %m_pos.i.i, align 8
  %inc.i.i = add i32 %8, 1
  store i32 %inc.i.i, ptr %m_pos.i.i, align 8
  %9 = load ptr, ptr %e, align 8
  %tobool.not.i.i.i.i = icmp eq ptr %9, null
  br i1 %tobool.not.i.i.i.i, label %_ZN15ref_vector_coreI4expr19ref_manager_wrapperIS0_11ast_managerEE7inc_refEPS0_.exit.i, label %if.then.i.i.i.i

if.then.i.i.i.i:                                  ; preds = %_ZN13ast_fast_markILj2EE4markEP3ast.exit
  %m_ref_count.i.i.i.i.i = getelementptr inbounds i8, ptr %9, i64 8
  %10 = load i32, ptr %m_ref_count.i.i.i.i.i, align 4
  %inc.i.i.i.i.i = add i32 %10, 1
  store i32 %inc.i.i.i.i.i, ptr %m_ref_count.i.i.i.i.i, align 4
  br label %_ZN15ref_vector_coreI4expr19ref_manager_wrapperIS0_11ast_managerEE7inc_refEPS0_.exit.i

_ZN15ref_vector_coreI4expr19ref_manager_wrapperIS0_11ast_managerEE7inc_refEPS0_.exit.i: ; preds = %if.then.i.i.i.i, %_ZN13ast_fast_markILj2EE4markEP3ast.exit
  %m_nodes.i = getelementptr inbounds i8, ptr %out, i64 8
  %11 = load ptr, ptr %m_nodes.i, align 8
  %cmp.i.i = icmp eq ptr %11, null
  br i1 %cmp.i.i, label %if.then.i.i8, label %lor.lhs.false.i.i

lor.lhs.false.i.i:                                ; preds = %_ZN15ref_vector_coreI4expr19ref_manager_wrapperIS0_11ast_managerEE7inc_refEPS0_.exit.i
  %arrayidx.i.i = getelementptr inbounds i8, ptr %11, i64 -4
  %12 = load i32, ptr %arrayidx.i.i, align 4
  %arrayidx4.i.i = getelementptr inbounds i8, ptr %11, i64 -8
  %13 = load i32, ptr %arrayidx4.i.i, align 4
  %cmp5.i.i = icmp eq i32 %12, %13
  br i1 %cmp5.i.i, label %if.then.i.i8, label %_ZN15ref_vector_coreI4expr19ref_manager_wrapperIS0_11ast_managerEE9push_backEPS0_.exit

if.then.i.i8:                                     ; preds = %lor.lhs.false.i.i, %_ZN15ref_vector_coreI4expr19ref_manager_wrapperIS0_11ast_managerEE7inc_refEPS0_.exit.i
  tail call void @_ZN6vectorIP4exprLb0EjE13expand_vectorEv(ptr noundef nonnull align 8 dereferenceable(8) %m_nodes.i)
  %.pre.i.i9 = load ptr, ptr %m_nodes.i, align 8
  %arrayidx8.phi.trans.insert.i.i = getelementptr inbounds i8, ptr %.pre.i.i9, i64 -4
  %.pre1.i.i10 = load i32, ptr %arrayidx8.phi.trans.insert.i.i, align 4
  br label %_ZN15ref_vector_coreI4expr19ref_manager_wrapperIS0_11ast_managerEE9push_backEPS0_.exit

_ZN15ref_vector_coreI4expr19ref_manager_wrapperIS0_11ast_managerEE9push_backEPS0_.exit: ; preds = %lor.lhs.false.i.i, %if.then.i.i8
  %14 = phi i32 [ %.pre1.i.i10, %if.then.i.i8 ], [ %12, %lor.lhs.false.i.i ]
  %15 = phi ptr [ %.pre.i.i9, %if.then.i.i8 ], [ %11, %lor.lhs.false.i.i ]
  %idx.ext.i.i5 = zext i32 %14 to i64
  %add.ptr.i.i6 = getelementptr inbounds ptr, ptr %15, i64 %idx.ext.i.i5
  store ptr %9, ptr %add.ptr.i.i6, align 8
  %16 = load ptr, ptr %m_nodes.i, align 8
  %arrayidx10.i.i = getelementptr inbounds i8, ptr %16, i64 -4
  %17 = load i32, ptr %arrayidx10.i.i, align 4
  %inc.i.i7 = add i32 %17, 1
  store i32 %inc.i.i7, ptr %arrayidx10.i.i, align 4
  br label %return

return:                                           ; preds = %entry, %_ZN15ref_vector_coreI4expr19ref_manager_wrapperIS0_11ast_managerEE9push_backEPS0_.exit
  ret i1 %tobool.i.i.not
}